target datalayout = "e-m:e-p270:32:32-p271:32:32-p272:64:64-i64:64-i128:128-f80:128-n8:16:32:64-S128"
target triple = "x86_64-unknown-linux-gnu"

%"class.cvc5::internal::NodeBuilder" = type <{ %"class.cvc5::internal::expr::NodeValue", [10 x ptr], ptr, ptr, i32, [4 x i8] }>
%"class.cvc5::internal::expr::NodeValue" = type { i64, i16, i32, [0 x ptr] }

; Function Attrs: mustprogress uwtable
define hidden void @_ZN4cvc58internal11NodeBuilder7reallocEv(ptr noundef nonnull align 8 dereferenceable(116) %this) #4 align 2 {
entry:
  %this.addr = alloca ptr, align 8
  %newSize = alloca i64, align 8
  %hardLimit = alloca i64, align 8
  store ptr %this, ptr %this.addr, align 8
  %this1 = load ptr, ptr %this.addr, align 8
  %d_nvMaxChildren = getelementptr inbounds %"class.cvc5::internal::NodeBuilder", ptr %this1, i32 0, i32 4
  %0 = load i32, ptr %d_nvMaxChildren, align 8
  %conv = zext i32 %0 to i64
  %mul = mul i64 2, %conv
  store i64 %mul, ptr %newSize, align 8
  store i64 67108863, ptr %hardLimit, align 8
  %1 = load i64, ptr %newSize, align 8
  %2 = load i64, ptr %hardLimit, align 8
  %cmp = icmp ugt i64 %1, %2
  br i1 %cmp, label %cond.true, label %cond.false

cond.true:                                        ; preds = %entry
  %3 = load i64, ptr %hardLimit, align 8
  br label %cond.end

cond.false:                                       ; preds = %entry
  %4 = load i64, ptr %newSize, align 8
  br label %cond.end

cond.end:                                         ; preds = %cond.false, %cond.true
  %cond = phi i64 [ %3, %cond.true ], [ %4, %cond.false ]
  call void @_ZN4cvc58internal11NodeBuilder7reallocEm(ptr noundef nonnull align 8 dereferenceable(116) %this1, i64 noundef %cond)
  ret void
}