; Function Attrs: mustprogress uwtable
define hidden void @_ZN4cvc58internal11NodeBuilder7reallocEv(ptr noundef nonnull align 8 dereferenceable(116) %this) local_unnamed_addr #3 align 2 {
entry:
  %d_nvMaxChildren = getelementptr inbounds i8, ptr %this, i64 112
  %0 = load i32, ptr %d_nvMaxChildren, align 8
  %conv = zext i32 %0 to i64
  %mul = shl nuw nsw i64 %conv, 1
  %cond = tail call i64 @llvm.umin.i64(i64 %mul, i64 67108863)
  tail call void @_ZN4cvc58internal11NodeBuilder7reallocEm(ptr noundef nonnull align 8 dereferenceable(116) %this, i64 noundef %cond)
  ret void
}